; Function Attrs: mustprogress uwtable
define dso_local void @_ZNK3tev9IpcPacket22interpretAsReloadImageEv(ptr dead_on_unwind noalias writable sret(%"struct.tev::IpcPacketReloadImage") align 8 %0, ptr noundef nonnull align 8 dereferenceable(24) %1) local_unnamed_addr #3 align 2 personality ptr @__gxx_personality_v0 {
  %3 = alloca %"class.tev::IpcPacket::IStream", align 8
  tail call void @llvm.memset.p0.i64(ptr noundef nonnull align 8 dereferenceable(24) %0, i8 0, i64 24, i1 false)
  invoke void @_ZN3tev9IpcPacket7IStreamC2ERKNSt3__16vectorIcNS2_9allocatorIcEEEE(ptr noundef nonnull align 8 dereferenceable(16) %3, ptr noundef nonnull align 8 dereferenceable(24) %1)
          to label %4 unwind label %25

4:                                                ; preds = %2
  %5 = load ptr, ptr %3, align 8
  %6 = getelementptr inbounds i8, ptr %5, i64 8
  %7 = load ptr, ptr %6, align 8
  %8 = load ptr, ptr %5, align 8
  %9 = ptrtoint ptr %7 to i64
  %10 = ptrtoint ptr %8 to i64
  %11 = sub i64 %9, %10
  %12 = getelementptr inbounds i8, ptr %3, i64 8
  %13 = load i64, ptr %12, align 8
  %14 = add i64 %13, 1
  %15 = icmp ult i64 %11, %14
  br i1 %15, label %16, label %20

16:                                               ; preds = %4
  %17 = call ptr @__cxa_allocate_exception(i64 16) #25
  invoke void @_ZNSt13runtime_errorC1EPKc(ptr noundef nonnull align 8 dereferenceable(16) %17, ptr noundef nonnull @.str.48)
          to label %.invoke unwind label %18

18:                                               ; preds = %16
  %19 = landingpad { ptr, i32 }
          cleanup
  call void @__cxa_free_exception(ptr %17) #25
  br label %.body

20:                                               ; preds = %4
  %21 = getelementptr inbounds i8, ptr %8, i64 %13
  %22 = load i8, ptr %21, align 1
  store i64 %14, ptr %12, align 8
  %.not = icmp eq i8 %22, 1
  br i1 %.not, label %29, label %23

23:                                               ; preds = %20
  %24 = call ptr @__cxa_allocate_exception(i64 16) #25
  invoke void @_ZNSt13runtime_errorC1EPKc(ptr noundef nonnull align 8 dereferenceable(16) %24, ptr noundef nonnull @.str.9)
          to label %.invoke unwind label %27

25:                                               ; preds = %.invoke, %42, %2
  %26 = landingpad { ptr, i32 }
          cleanup
  br label %.body

27:                                               ; preds = %23
  %28 = landingpad { ptr, i32 }
          cleanup
  call void @__cxa_free_exception(ptr %24) #25
  br label %.body

29:                                               ; preds = %20
  %30 = load ptr, ptr %6, align 8
  %31 = load ptr, ptr %5, align 8
  %32 = ptrtoint ptr %30 to i64
  %33 = ptrtoint ptr %31 to i64
  %34 = sub i64 %32, %33
  %35 = add i64 %13, 2
  %36 = icmp ult i64 %34, %35
  br i1 %36, label %37, label %42

37:                                               ; preds = %29
  %38 = call ptr @__cxa_allocate_exception(i64 16) #25
  invoke void @_ZNSt13runtime_errorC1EPKc(ptr noundef nonnull align 8 dereferenceable(16) %38, ptr noundef nonnull @.str.49)
          to label %.invoke unwind label %40

.invoke:                                          ; preds = %23, %16, %37
  %39 = phi ptr [ %38, %37 ], [ %17, %16 ], [ %24, %23 ]
  invoke void @__cxa_throw(ptr nonnull %39, ptr nonnull @_ZTISt13runtime_error, ptr nonnull @_ZNSt13runtime_errorD1Ev) #27
          to label %.cont unwind label %25

.cont:                                            ; preds = %.invoke
  unreachable

40:                                               ; preds = %37
  %41 = landingpad { ptr, i32 }
          cleanup
  call void @__cxa_free_exception(ptr %38) #25
  br label %.body

42:                                               ; preds = %29
  %43 = getelementptr inbounds i8, ptr %0, i64 24
  %44 = getelementptr inbounds i8, ptr %31, i64 %14
  %45 = load i8, ptr %44, align 1
  %46 = icmp eq i8 %45, 1
  %47 = zext i1 %46 to i8
  store i8 %47, ptr %43, align 8
  store i64 %35, ptr %12, align 8
  %48 = invoke noundef nonnull align 8 dereferenceable(16) ptr @_ZN3tev9IpcPacket7IStreamrsERNSt3__112basic_stringIcNS2_11char_traitsIcEENS2_9allocatorIcEEEE(ptr noundef nonnull align 8 dereferenceable(16) %3, ptr noundef nonnull align 8 dereferenceable(24) %0)
          to label %49 unwind label %25

49:                                               ; preds = %42
  ret void

.body:                                            ; preds = %18, %40, %25, %27
  %.pn = phi { ptr, i32 } [ %28, %27 ], [ %19, %18 ], [ %26, %25 ], [ %41, %40 ]
  call void @_ZNSt3__112basic_stringIcNS_11char_traitsIcEENS_9allocatorIcEEED1Ev(ptr noundef nonnull align 8 dereferenceable(24) %0) #25
  resume { ptr, i32 } %.pn
}